target datalayout = "e-m:e-p270:32:32-p271:32:32-p272:64:64-i64:64-i128:128-f80:128-n8:16:32:64-S128"
target triple = "x86_64-pc-linux-gnu"

%struct.lxb_html_token_t = type { ptr, ptr, i64, i64, ptr, ptr, ptr, ptr, ptr, i64, i64, i32 }
%struct.lexbor_str_t = type { ptr, i64 }

; Function Attrs: nounwind uwtable
define hidden i32 @lxb_html_token_make_text_drop_null(ptr noundef %0, ptr noundef %1, ptr noundef %2) #0 {
  %4 = alloca i32, align 4
  %5 = alloca ptr, align 8
  %6 = alloca ptr, align 8
  %7 = alloca ptr, align 8
  %8 = alloca ptr, align 8
  %9 = alloca i8, align 1
  %10 = alloca ptr, align 8
  %11 = alloca ptr, align 8
  %12 = alloca i64, align 8
  store ptr %0, ptr %5, align 8
  store ptr %1, ptr %6, align 8
  store ptr %2, ptr %7, align 8
  %13 = load ptr, ptr %5, align 8
  %14 = getelementptr inbounds %struct.lxb_html_token_t, ptr %13, i32 0, i32 4
  %15 = load ptr, ptr %14, align 8
  store ptr %15, ptr %10, align 8
  %16 = load ptr, ptr %5, align 8
  %17 = getelementptr inbounds %struct.lxb_html_token_t, ptr %16, i32 0, i32 5
  %18 = load ptr, ptr %17, align 8
  store ptr %18, ptr %11, align 8
  %19 = load ptr, ptr %11, align 8
  %20 = load ptr, ptr %10, align 8
  %21 = ptrtoint ptr %19 to i64
  %22 = ptrtoint ptr %20 to i64
  %23 = sub i64 %21, %22
  %24 = load ptr, ptr %5, align 8
  %25 = getelementptr inbounds %struct.lxb_html_token_t, ptr %24, i32 0, i32 9
  %26 = load i64, ptr %25, align 8
  %27 = sub i64 %23, %26
  store i64 %27, ptr %12, align 8
  %28 = load ptr, ptr %6, align 8
  %29 = load ptr, ptr %7, align 8
  %30 = load i64, ptr %12, align 8
  %31 = call ptr @lexbor_str_init(ptr noundef %28, ptr noundef %29, i64 noundef %30)
  %32 = load ptr, ptr %6, align 8
  %33 = getelementptr inbounds %struct.lexbor_str_t, ptr %32, i32 0, i32 0
  %34 = load ptr, ptr %33, align 8
  %35 = icmp eq ptr %34, null
  br i1 %35, label %36, label %37

36:                                               ; preds = %3
  store i32 2, ptr %4, align 4
  br label %66

37:                                               ; preds = %3
  %38 = load ptr, ptr %6, align 8
  %39 = getelementptr inbounds %struct.lexbor_str_t, ptr %38, i32 0, i32 0
  %40 = load ptr, ptr %39, align 8
  store ptr %40, ptr %8, align 8
  br label %41

41:                                               ; preds = %56, %37
  %42 = load ptr, ptr %10, align 8
  %43 = load ptr, ptr %11, align 8
  %44 = icmp ult ptr %42, %43
  br i1 %44, label %45, label %57

45:                                               ; preds = %41
  %46 = load ptr, ptr %10, align 8
  %47 = getelementptr inbounds i8, ptr %46, i32 1
  store ptr %47, ptr %10, align 8
  %48 = load i8, ptr %46, align 1
  store i8 %48, ptr %9, align 1
  %49 = load i8, ptr %9, align 1
  %50 = zext i8 %49 to i32
  %51 = icmp ne i32 %50, 0
  br i1 %51, label %52, label %56

52:                                               ; preds = %45
  %53 = load i8, ptr %9, align 1
  %54 = load ptr, ptr %8, align 8
  %55 = getelementptr inbounds i8, ptr %54, i32 1
  store ptr %55, ptr %8, align 8
  store i8 %53, ptr %54, align 1
  br label %56

56:                                               ; preds = %52, %45
  br label %41

57:                                               ; preds = %41
  %58 = load ptr, ptr %6, align 8
  %59 = getelementptr inbounds %struct.lexbor_str_t, ptr %58, i32 0, i32 0
  %60 = load ptr, ptr %59, align 8
  %61 = load i64, ptr %12, align 8
  %62 = getelementptr inbounds i8, ptr %60, i64 %61
  store i8 0, ptr %62, align 1
  %63 = load i64, ptr %12, align 8
  %64 = load ptr, ptr %6, align 8
  %65 = getelementptr inbounds %struct.lexbor_str_t, ptr %64, i32 0, i32 1
  store i64 %63, ptr %65, align 8
  store i32 0, ptr %4, align 4
  br label %66

66:                                               ; preds = %57, %36
  %67 = load i32, ptr %4, align 4
  ret i32 %67
}