; Function Attrs: nounwind uwtable
define hidden noundef i32 @lxb_html_token_make_text_drop_null(ptr nocapture noundef readonly %0, ptr noundef %1, ptr noundef %2) local_unnamed_addr #0 {
  %4 = getelementptr inbounds i8, ptr %0, i64 32
  %5 = load ptr, ptr %4, align 8
  %6 = ptrtoint ptr %5 to i64
  %7 = getelementptr inbounds i8, ptr %0, i64 40
  %8 = load ptr, ptr %7, align 8
  %9 = ptrtoint ptr %8 to i64
  %10 = getelementptr inbounds i8, ptr %0, i64 72
  %11 = load i64, ptr %10, align 8
  %12 = add i64 %11, %6
  %13 = sub i64 %9, %12
  %14 = tail call ptr @lexbor_str_init(ptr noundef %1, ptr noundef %2, i64 noundef %13) #8
  %15 = load ptr, ptr %1, align 8
  %16 = icmp eq ptr %15, null
  br i1 %16, label %26, label %.preheader

.preheader:                                       ; preds = %3
  %17 = icmp ult ptr %5, %8
  br i1 %17, label %.lr.ph, label %._crit_edge

.lr.ph:                                           ; preds = %.preheader, %22
  %.02026 = phi ptr [ %.1, %22 ], [ %15, %.preheader ]
  %.02125 = phi ptr [ %18, %22 ], [ %5, %.preheader ]
  %18 = getelementptr inbounds i8, ptr %.02125, i64 1
  %19 = load i8, ptr %.02125, align 1
  %.not = icmp eq i8 %19, 0
  br i1 %.not, label %22, label %20

20:                                               ; preds = %.lr.ph
  %21 = getelementptr inbounds i8, ptr %.02026, i64 1
  store i8 %19, ptr %.02026, align 1
  br label %22

22:                                               ; preds = %20, %.lr.ph
  %.1 = phi ptr [ %21, %20 ], [ %.02026, %.lr.ph ]
  %exitcond.not = icmp eq ptr %18, %8
  br i1 %exitcond.not, label %._crit_edge.loopexit, label %.lr.ph

._crit_edge.loopexit:                             ; preds = %22
  %.pre = load ptr, ptr %1, align 8
  br label %._crit_edge

._crit_edge:                                      ; preds = %._crit_edge.loopexit, %.preheader
  %23 = phi ptr [ %.pre, %._crit_edge.loopexit ], [ %15, %.preheader ]
  %24 = getelementptr inbounds i8, ptr %23, i64 %13
  store i8 0, ptr %24, align 1
  %25 = getelementptr inbounds i8, ptr %1, i64 8
  store i64 %13, ptr %25, align 8
  br label %26

26:                                               ; preds = %3, %._crit_edge
  %.0 = phi i32 [ 0, %._crit_edge ], [ 2, %3 ]
  ret i32 %.0
}